target datalayout = "e-m:e-p270:32:32-p271:32:32-p272:64:64-i64:64-i128:128-f80:128-n8:16:32:64-S128"
target triple = "x86_64-pc-linux-gnu"

%struct.Hop_Man_t_ = type { ptr, ptr, ptr, ptr, %struct.Hop_Obj_t_, [6 x i32], i32, i32, ptr, i32, ptr, i32, i32, i32, ptr, ptr, ptr, i64, i64 }
%struct.Hop_Obj_t_ = type { %union.anon, %union.anon.0, ptr, ptr, i32, i32 }
%union.anon = type { ptr }
%union.anon.0 = type { ptr }

; Function Attrs: inlinehint nounwind uwtable
define internal ptr @Hop_ManGhost(ptr noundef %0) #2 {
  %2 = alloca ptr, align 8
  store ptr %0, ptr %2, align 8, !tbaa !3
  %3 = load ptr, ptr %2, align 8, !tbaa !3
  %4 = getelementptr inbounds nuw %struct.Hop_Man_t_, ptr %3, i32 0, i32 4
  ret ptr %4
}

; Function Attrs: inlinehint nounwind uwtable
define internal ptr @Hop_ObjCreateGhost(ptr noundef %0, ptr noundef %1, ptr noundef %2, i32 noundef %3) #2 {
  %5 = alloca ptr, align 8
  %6 = alloca ptr, align 8
  %7 = alloca ptr, align 8
  %8 = alloca i32, align 4
  %9 = alloca ptr, align 8
  store ptr %0, ptr %5, align 8, !tbaa !3
  store ptr %1, ptr %6, align 8, !tbaa !19
  store ptr %2, ptr %7, align 8, !tbaa !19
  store i32 %3, ptr %8, align 4, !tbaa !8
  call void @llvm.lifetime.start.p0(i64 8, ptr %9) #4
  %10 = load ptr, ptr %5, align 8, !tbaa !3
  %11 = call ptr @Hop_ManGhost(ptr noundef %10)
  store ptr %11, ptr %9, align 8, !tbaa !19
  %12 = load i32, ptr %8, align 4, !tbaa !8
  %13 = load ptr, ptr %9, align 8, !tbaa !19
  %14 = getelementptr inbounds nuw %struct.Hop_Obj_t_, ptr %13, i32 0, i32 4
  %15 = load i32, ptr %14, align 8
  %16 = and i32 %12, 7
  %17 = and i32 %15, -8
  %18 = or i32 %17, %16
  store i32 %18, ptr %14, align 8
  %19 = load ptr, ptr %6, align 8, !tbaa !19
  %20 = call ptr @Hop_Regular(ptr noundef %19)
  %21 = getelementptr inbounds nuw %struct.Hop_Obj_t_, ptr %20, i32 0, i32 5
  %22 = load i32, ptr %21, align 4, !tbaa !21
  %23 = load ptr, ptr %7, align 8, !tbaa !19
  %24 = call ptr @Hop_Regular(ptr noundef %23)
  %25 = getelementptr inbounds nuw %struct.Hop_Obj_t_, ptr %24, i32 0, i32 5
  %26 = load i32, ptr %25, align 4, !tbaa !21
  %27 = icmp slt i32 %22, %26
  br i1 %27, label %28, label %35

28:                                               ; preds = %4
  %29 = load ptr, ptr %6, align 8, !tbaa !19
  %30 = load ptr, ptr %9, align 8, !tbaa !19
  %31 = getelementptr inbounds nuw %struct.Hop_Obj_t_, ptr %30, i32 0, i32 2
  store ptr %29, ptr %31, align 8, !tbaa !22
  %32 = load ptr, ptr %7, align 8, !tbaa !19
  %33 = load ptr, ptr %9, align 8, !tbaa !19
  %34 = getelementptr inbounds nuw %struct.Hop_Obj_t_, ptr %33, i32 0, i32 3
  store ptr %32, ptr %34, align 8, !tbaa !23
  br label %42

35:                                               ; preds = %4
  %36 = load ptr, ptr %7, align 8, !tbaa !19
  %37 = load ptr, ptr %9, align 8, !tbaa !19
  %38 = getelementptr inbounds nuw %struct.Hop_Obj_t_, ptr %37, i32 0, i32 2
  store ptr %36, ptr %38, align 8, !tbaa !22
  %39 = load ptr, ptr %6, align 8, !tbaa !19
  %40 = load ptr, ptr %9, align 8, !tbaa !19
  %41 = getelementptr inbounds nuw %struct.Hop_Obj_t_, ptr %40, i32 0, i32 3
  store ptr %39, ptr %41, align 8, !tbaa !23
  br label %42

42:                                               ; preds = %35, %28
  %43 = load ptr, ptr %9, align 8, !tbaa !19
  call void @llvm.lifetime.end.p0(i64 8, ptr %9) #4
  ret ptr %43
}

; Function Attrs: inlinehint nounwind uwtable
define internal ptr @Hop_Regular(ptr noundef %0) #2 {
  %2 = alloca ptr, align 8
  store ptr %0, ptr %2, align 8, !tbaa !19
  %3 = load ptr, ptr %2, align 8, !tbaa !19
  %4 = ptrtoint ptr %3 to i64
  %5 = and i64 %4, -2
  %6 = inttoptr i64 %5 to ptr
  ret ptr %6
}

; Function Attrs: nounwind uwtable
define ptr @Hop_Or(ptr noundef %0, ptr noundef %1, ptr noundef %2) #0 {
  %4 = alloca ptr, align 8
  %5 = alloca ptr, align 8
  %6 = alloca ptr, align 8
  store ptr %0, ptr %4, align 8, !tbaa !3
  store ptr %1, ptr %5, align 8, !tbaa !19
  store ptr %2, ptr %6, align 8, !tbaa !19
  %7 = load ptr, ptr %4, align 8, !tbaa !3
  %8 = load ptr, ptr %5, align 8, !tbaa !19
  %9 = call ptr @Hop_Not(ptr noundef %8)
  %10 = load ptr, ptr %6, align 8, !tbaa !19
  %11 = call ptr @Hop_Not(ptr noundef %10)
  %12 = call ptr @Hop_And(ptr noundef %7, ptr noundef %9, ptr noundef %11)
  %13 = call ptr @Hop_Not(ptr noundef %12)
  ret ptr %13
}

; Function Attrs: inlinehint nounwind uwtable
define internal ptr @Hop_Not(ptr noundef %0) #2 {
  %2 = alloca ptr, align 8
  store ptr %0, ptr %2, align 8, !tbaa !19
  %3 = load ptr, ptr %2, align 8, !tbaa !19
  %4 = ptrtoint ptr %3 to i64
  %5 = xor i64 %4, 1
  %6 = inttoptr i64 %5 to ptr
  ret ptr %6
}

; Function Attrs: nounwind uwtable
define ptr @Hop_And(ptr noundef %0, ptr noundef %1, ptr noundef %2) #0 {
  %4 = alloca ptr, align 8
  %5 = alloca ptr, align 8
  %6 = alloca ptr, align 8
  %7 = alloca ptr, align 8
  %8 = alloca ptr, align 8
  %9 = alloca ptr, align 8
  %10 = alloca i32, align 4
  store ptr %0, ptr %5, align 8, !tbaa !3
  store ptr %1, ptr %6, align 8, !tbaa !19
  store ptr %2, ptr %7, align 8, !tbaa !19
  call void @llvm.lifetime.start.p0(i64 8, ptr %8) #4
  call void @llvm.lifetime.start.p0(i64 8, ptr %9) #4
  %11 = load ptr, ptr %6, align 8, !tbaa !19
  %12 = load ptr, ptr %7, align 8, !tbaa !19
  %13 = icmp eq ptr %11, %12
  br i1 %13, label %14, label %16

14:                                               ; preds = %3
  %15 = load ptr, ptr %6, align 8, !tbaa !19
  store ptr %15, ptr %4, align 8
  store i32 1, ptr %10, align 4
  br label %85

16:                                               ; preds = %3
  %17 = load ptr, ptr %6, align 8, !tbaa !19
  %18 = load ptr, ptr %7, align 8, !tbaa !19
  %19 = call ptr @Hop_Not(ptr noundef %18)
  %20 = icmp eq ptr %17, %19
  br i1 %20, label %21, label %26

21:                                               ; preds = %16
  %22 = load ptr, ptr %5, align 8, !tbaa !3
  %23 = getelementptr inbounds nuw %struct.Hop_Man_t_, ptr %22, i32 0, i32 3
  %24 = load ptr, ptr %23, align 8, !tbaa !20
  %25 = call ptr @Hop_Not(ptr noundef %24)
  store ptr %25, ptr %4, align 8
  store i32 1, ptr %10, align 4
  br label %85

26:                                               ; preds = %16
  %27 = load ptr, ptr %6, align 8, !tbaa !19
  %28 = call ptr @Hop_Regular(ptr noundef %27)
  %29 = load ptr, ptr %5, align 8, !tbaa !3
  %30 = getelementptr inbounds nuw %struct.Hop_Man_t_, ptr %29, i32 0, i32 3
  %31 = load ptr, ptr %30, align 8, !tbaa !20
  %32 = icmp eq ptr %28, %31
  br i1 %32, label %33, label %48

33:                                               ; preds = %26
  %34 = load ptr, ptr %6, align 8, !tbaa !19
  %35 = load ptr, ptr %5, align 8, !tbaa !3
  %36 = getelementptr inbounds nuw %struct.Hop_Man_t_, ptr %35, i32 0, i32 3
  %37 = load ptr, ptr %36, align 8, !tbaa !20
  %38 = icmp eq ptr %34, %37
  br i1 %38, label %39, label %41

39:                                               ; preds = %33
  %40 = load ptr, ptr %7, align 8, !tbaa !19
  br label %46

41:                                               ; preds = %33
  %42 = load ptr, ptr %5, align 8, !tbaa !3
  %43 = getelementptr inbounds nuw %struct.Hop_Man_t_, ptr %42, i32 0, i32 3
  %44 = load ptr, ptr %43, align 8, !tbaa !20
  %45 = call ptr @Hop_Not(ptr noundef %44)
  br label %46

46:                                               ; preds = %41, %39
  %47 = phi ptr [ %40, %39 ], [ %45, %41 ]
  store ptr %47, ptr %4, align 8
  store i32 1, ptr %10, align 4
  br label %85

48:                                               ; preds = %26
  %49 = load ptr, ptr %7, align 8, !tbaa !19
  %50 = call ptr @Hop_Regular(ptr noundef %49)
  %51 = load ptr, ptr %5, align 8, !tbaa !3
  %52 = getelementptr inbounds nuw %struct.Hop_Man_t_, ptr %51, i32 0, i32 3
  %53 = load ptr, ptr %52, align 8, !tbaa !20
  %54 = icmp eq ptr %50, %53
  br i1 %54, label %55, label %70

55:                                               ; preds = %48
  %56 = load ptr, ptr %7, align 8, !tbaa !19
  %57 = load ptr, ptr %5, align 8, !tbaa !3
  %58 = getelementptr inbounds nuw %struct.Hop_Man_t_, ptr %57, i32 0, i32 3
  %59 = load ptr, ptr %58, align 8, !tbaa !20
  %60 = icmp eq ptr %56, %59
  br i1 %60, label %61, label %63

61:                                               ; preds = %55
  %62 = load ptr, ptr %6, align 8, !tbaa !19
  br label %68

63:                                               ; preds = %55
  %64 = load ptr, ptr %5, align 8, !tbaa !3
  %65 = getelementptr inbounds nuw %struct.Hop_Man_t_, ptr %64, i32 0, i32 3
  %66 = load ptr, ptr %65, align 8, !tbaa !20
  %67 = call ptr @Hop_Not(ptr noundef %66)
  br label %68

68:                                               ; preds = %63, %61
  %69 = phi ptr [ %62, %61 ], [ %67, %63 ]
  store ptr %69, ptr %4, align 8
  store i32 1, ptr %10, align 4
  br label %85

70:                                               ; preds = %48
  %71 = load ptr, ptr %5, align 8, !tbaa !3
  %72 = load ptr, ptr %6, align 8, !tbaa !19
  %73 = load ptr, ptr %7, align 8, !tbaa !19
  %74 = call ptr @Hop_ObjCreateGhost(ptr noundef %71, ptr noundef %72, ptr noundef %73, i32 noundef 4)
  store ptr %74, ptr %8, align 8, !tbaa !19
  %75 = load ptr, ptr %5, align 8, !tbaa !3
  %76 = load ptr, ptr %8, align 8, !tbaa !19
  %77 = call ptr @Hop_TableLookup(ptr noundef %75, ptr noundef %76)
  store ptr %77, ptr %9, align 8, !tbaa !19
  %78 = icmp ne ptr %77, null
  br i1 %78, label %79, label %81

79:                                               ; preds = %70
  %80 = load ptr, ptr %9, align 8, !tbaa !19
  store ptr %80, ptr %4, align 8
  store i32 1, ptr %10, align 4
  br label %85

81:                                               ; preds = %70
  %82 = load ptr, ptr %5, align 8, !tbaa !3
  %83 = load ptr, ptr %8, align 8, !tbaa !19
  %84 = call ptr @Hop_ObjCreate(ptr noundef %82, ptr noundef %83)
  store ptr %84, ptr %4, align 8
  store i32 1, ptr %10, align 4
  br label %85

85:                                               ; preds = %81, %79, %68, %46, %21, %14
  call void @llvm.lifetime.end.p0(i64 8, ptr %9) #4
  call void @llvm.lifetime.end.p0(i64 8, ptr %8) #4
  %86 = load ptr, ptr %4, align 8
  ret ptr %86
}

; Function Attrs: nounwind uwtable
define ptr @Hop_Mux(ptr noundef %0, ptr noundef %1, ptr noundef %2, ptr noundef %3) #0 {
  %5 = alloca ptr, align 8
  %6 = alloca ptr, align 8
  %7 = alloca ptr, align 8
  %8 = alloca ptr, align 8
  store ptr %0, ptr %5, align 8, !tbaa !3
  store ptr %1, ptr %6, align 8, !tbaa !19
  store ptr %2, ptr %7, align 8, !tbaa !19
  store ptr %3, ptr %8, align 8, !tbaa !19
  %9 = load ptr, ptr %5, align 8, !tbaa !3
  %10 = load ptr, ptr %5, align 8, !tbaa !3
  %11 = load ptr, ptr %6, align 8, !tbaa !19
  %12 = load ptr, ptr %7, align 8, !tbaa !19
  %13 = call ptr @Hop_And(ptr noundef %10, ptr noundef %11, ptr noundef %12)
  %14 = load ptr, ptr %5, align 8, !tbaa !3
  %15 = load ptr, ptr %6, align 8, !tbaa !19
  %16 = call ptr @Hop_Not(ptr noundef %15)
  %17 = load ptr, ptr %8, align 8, !tbaa !19
  %18 = call ptr @Hop_And(ptr noundef %14, ptr noundef %16, ptr noundef %17)
  %19 = call ptr @Hop_Or(ptr noundef %9, ptr noundef %13, ptr noundef %18)
  ret ptr %19
}