; Function Attrs: nounwind uwtable
define ptr @Hop_Mux(ptr noundef %0, ptr noundef %1, ptr noundef %2, ptr noundef %3) local_unnamed_addr #0 {
  %5 = icmp eq ptr %1, %2
  br i1 %5, label %Hop_And.exit, label %6

6:                                                ; preds = %4
  %7 = ptrtoint ptr %2 to i64
  %8 = xor i64 %7, 1
  %9 = inttoptr i64 %8 to ptr
  %10 = icmp eq ptr %1, %9
  br i1 %10, label %11, label %17

11:                                               ; preds = %6
  %12 = getelementptr inbounds nuw i8, ptr %0, i64 24
  %13 = load ptr, ptr %12, align 8, !tbaa !20
  %14 = ptrtoint ptr %13 to i64
  %15 = xor i64 %14, 1
  %16 = inttoptr i64 %15 to ptr
  br label %Hop_And.exit

17:                                               ; preds = %6
  %18 = ptrtoint ptr %1 to i64
  %19 = and i64 %18, -2
  %20 = inttoptr i64 %19 to ptr
  %21 = getelementptr inbounds nuw i8, ptr %0, i64 24
  %22 = load ptr, ptr %21, align 8, !tbaa !20
  %23 = icmp eq ptr %22, %20
  br i1 %23, label %24, label %29

24:                                               ; preds = %17
  %25 = icmp eq ptr %1, %20
  br i1 %25, label %Hop_And.exit, label %26

26:                                               ; preds = %24
  %27 = or i64 %18, 1
  %28 = inttoptr i64 %27 to ptr
  br label %Hop_And.exit

29:                                               ; preds = %17
  %30 = and i64 %7, -2
  %31 = inttoptr i64 %30 to ptr
  %32 = icmp eq ptr %22, %31
  br i1 %32, label %33, label %39

33:                                               ; preds = %29
  %34 = icmp eq ptr %2, %22
  br i1 %34, label %Hop_And.exit, label %35

35:                                               ; preds = %33
  %36 = ptrtoint ptr %22 to i64
  %37 = xor i64 %36, 1
  %38 = inttoptr i64 %37 to ptr
  br label %Hop_And.exit

39:                                               ; preds = %29
  %40 = getelementptr inbounds nuw i8, ptr %0, i64 64
  %41 = load i32, ptr %40, align 8
  %42 = and i32 %41, -8
  %43 = or disjoint i32 %42, 4
  store i32 %43, ptr %40, align 8
  %44 = getelementptr inbounds nuw i8, ptr %20, i64 36
  %45 = load i32, ptr %44, align 4, !tbaa !21
  %46 = getelementptr inbounds nuw i8, ptr %31, i64 36
  %47 = load i32, ptr %46, align 4, !tbaa !21
  %48 = icmp slt i32 %45, %47
  %spec.select.i.i = select i1 %48, ptr %1, ptr %2
  %spec.select14.i.i = select i1 %48, ptr %2, ptr %1
  %49 = getelementptr inbounds nuw i8, ptr %0, i64 48
  store ptr %spec.select.i.i, ptr %49, align 8, !tbaa !22
  %50 = getelementptr inbounds nuw i8, ptr %0, i64 56
  store ptr %spec.select14.i.i, ptr %50, align 8, !tbaa !23
  %51 = getelementptr inbounds nuw i8, ptr %0, i64 32
  %52 = tail call ptr @Hop_TableLookup(ptr noundef nonnull %0, ptr noundef nonnull %51) #2
  %.not.i = icmp eq ptr %52, null
  br i1 %.not.i, label %53, label %Hop_And.exit

53:                                               ; preds = %39
  %54 = tail call ptr @Hop_ObjCreate(ptr noundef nonnull %0, ptr noundef nonnull %51) #2
  br label %Hop_And.exit

Hop_And.exit:                                     ; preds = %4, %11, %24, %26, %33, %35, %39, %53
  %.0.i = phi ptr [ %16, %11 ], [ %54, %53 ], [ %1, %4 ], [ %28, %26 ], [ %2, %24 ], [ %38, %35 ], [ %1, %33 ], [ %52, %39 ]
  %55 = ptrtoint ptr %1 to i64
  %56 = xor i64 %55, 1
  %57 = inttoptr i64 %56 to ptr
  %58 = icmp eq ptr %3, %57
  br i1 %58, label %Hop_And.exit11, label %59

59:                                               ; preds = %Hop_And.exit
  %60 = ptrtoint ptr %3 to i64
  %61 = icmp eq ptr %1, %3
  br i1 %61, label %62, label %68

62:                                               ; preds = %59
  %63 = getelementptr inbounds nuw i8, ptr %0, i64 24
  %64 = load ptr, ptr %63, align 8, !tbaa !20
  %65 = ptrtoint ptr %64 to i64
  %66 = xor i64 %65, 1
  %67 = inttoptr i64 %66 to ptr
  br label %Hop_And.exit11

68:                                               ; preds = %59
  %69 = and i64 %55, -2
  %70 = inttoptr i64 %69 to ptr
  %71 = getelementptr inbounds nuw i8, ptr %0, i64 24
  %72 = load ptr, ptr %71, align 8, !tbaa !20
  %73 = icmp eq ptr %72, %70
  br i1 %73, label %74, label %79

74:                                               ; preds = %68
  %75 = icmp eq i64 %56, %69
  br i1 %75, label %Hop_And.exit11, label %76

76:                                               ; preds = %74
  %77 = or i64 %55, 1
  %78 = inttoptr i64 %77 to ptr
  br label %Hop_And.exit11

79:                                               ; preds = %68
  %80 = and i64 %60, -2
  %81 = inttoptr i64 %80 to ptr
  %82 = icmp eq ptr %72, %81
  br i1 %82, label %83, label %89

83:                                               ; preds = %79
  %84 = icmp eq ptr %3, %72
  br i1 %84, label %Hop_And.exit11, label %85

85:                                               ; preds = %83
  %86 = ptrtoint ptr %72 to i64
  %87 = xor i64 %86, 1
  %88 = inttoptr i64 %87 to ptr
  br label %Hop_And.exit11

89:                                               ; preds = %79
  %90 = getelementptr inbounds nuw i8, ptr %0, i64 64
  %91 = load i32, ptr %90, align 8
  %92 = and i32 %91, -8
  %93 = or disjoint i32 %92, 4
  store i32 %93, ptr %90, align 8
  %94 = getelementptr inbounds nuw i8, ptr %70, i64 36
  %95 = load i32, ptr %94, align 4, !tbaa !21
  %96 = getelementptr inbounds nuw i8, ptr %81, i64 36
  %97 = load i32, ptr %96, align 4, !tbaa !21
  %98 = icmp slt i32 %95, %97
  %spec.select.i.i7 = select i1 %98, ptr %57, ptr %3
  %spec.select14.i.i8 = select i1 %98, ptr %3, ptr %57
  %99 = getelementptr inbounds nuw i8, ptr %0, i64 48
  store ptr %spec.select.i.i7, ptr %99, align 8, !tbaa !22
  %100 = getelementptr inbounds nuw i8, ptr %0, i64 56
  store ptr %spec.select14.i.i8, ptr %100, align 8, !tbaa !23
  %101 = getelementptr inbounds nuw i8, ptr %0, i64 32
  %102 = tail call ptr @Hop_TableLookup(ptr noundef nonnull %0, ptr noundef nonnull %101) #2
  %.not.i9 = icmp eq ptr %102, null
  br i1 %.not.i9, label %103, label %Hop_And.exit11

103:                                              ; preds = %89
  %104 = tail call ptr @Hop_ObjCreate(ptr noundef nonnull %0, ptr noundef nonnull %101) #2
  br label %Hop_And.exit11

Hop_And.exit11:                                   ; preds = %Hop_And.exit, %62, %74, %76, %83, %85, %89, %103
  %.0.i10 = phi ptr [ %67, %62 ], [ %104, %103 ], [ %3, %Hop_And.exit ], [ %78, %76 ], [ %3, %74 ], [ %88, %85 ], [ %57, %83 ], [ %102, %89 ]
  %105 = ptrtoint ptr %.0.i to i64
  %106 = xor i64 %105, 1
  %107 = inttoptr i64 %106 to ptr
  %108 = ptrtoint ptr %.0.i10 to i64
  %109 = xor i64 %108, 1
  %110 = inttoptr i64 %109 to ptr
  %111 = icmp eq ptr %.0.i, %.0.i10
  br i1 %111, label %Hop_Or.exit, label %112

112:                                              ; preds = %Hop_And.exit11
  %113 = icmp eq ptr %.0.i10, %107
  br i1 %113, label %114, label %120

114:                                              ; preds = %112
  %115 = getelementptr inbounds nuw i8, ptr %0, i64 24
  %116 = load ptr, ptr %115, align 8, !tbaa !20
  %117 = ptrtoint ptr %116 to i64
  %118 = xor i64 %117, 1
  %119 = inttoptr i64 %118 to ptr
  br label %Hop_Or.exit

120:                                              ; preds = %112
  %121 = and i64 %105, -2
  %122 = inttoptr i64 %121 to ptr
  %123 = getelementptr inbounds nuw i8, ptr %0, i64 24
  %124 = load ptr, ptr %123, align 8, !tbaa !20
  %125 = icmp eq ptr %124, %122
  br i1 %125, label %126, label %131

126:                                              ; preds = %120
  %127 = icmp eq i64 %106, %121
  br i1 %127, label %Hop_Or.exit, label %128

128:                                              ; preds = %126
  %129 = or i64 %105, 1
  %130 = inttoptr i64 %129 to ptr
  br label %Hop_Or.exit

131:                                              ; preds = %120
  %132 = and i64 %108, -2
  %133 = inttoptr i64 %132 to ptr
  %134 = icmp eq ptr %124, %133
  br i1 %134, label %135, label %141

135:                                              ; preds = %131
  %136 = icmp eq ptr %124, %110
  br i1 %136, label %Hop_Or.exit, label %137

137:                                              ; preds = %135
  %138 = ptrtoint ptr %124 to i64
  %139 = xor i64 %138, 1
  %140 = inttoptr i64 %139 to ptr
  br label %Hop_Or.exit

141:                                              ; preds = %131
  %142 = getelementptr inbounds nuw i8, ptr %0, i64 64
  %143 = load i32, ptr %142, align 8
  %144 = and i32 %143, -8
  %145 = or disjoint i32 %144, 4
  store i32 %145, ptr %142, align 8
  %146 = getelementptr inbounds nuw i8, ptr %122, i64 36
  %147 = load i32, ptr %146, align 4, !tbaa !21
  %148 = getelementptr inbounds nuw i8, ptr %133, i64 36
  %149 = load i32, ptr %148, align 4, !tbaa !21
  %150 = icmp slt i32 %147, %149
  %spec.select.i.i.i = select i1 %150, ptr %107, ptr %110
  %spec.select14.i.i.i = select i1 %150, ptr %110, ptr %107
  %151 = getelementptr inbounds nuw i8, ptr %0, i64 48
  store ptr %spec.select.i.i.i, ptr %151, align 8, !tbaa !22
  %152 = getelementptr inbounds nuw i8, ptr %0, i64 56
  store ptr %spec.select14.i.i.i, ptr %152, align 8, !tbaa !23
  %153 = getelementptr inbounds nuw i8, ptr %0, i64 32
  %154 = tail call ptr @Hop_TableLookup(ptr noundef nonnull %0, ptr noundef nonnull %153) #2
  %.not.i.i = icmp eq ptr %154, null
  br i1 %.not.i.i, label %155, label %Hop_Or.exit

155:                                              ; preds = %141
  %156 = tail call ptr @Hop_ObjCreate(ptr noundef nonnull %0, ptr noundef nonnull %153) #2
  br label %Hop_Or.exit

Hop_Or.exit:                                      ; preds = %Hop_And.exit11, %114, %126, %128, %135, %137, %141, %155
  %.0.i.i = phi ptr [ %119, %114 ], [ %156, %155 ], [ %107, %Hop_And.exit11 ], [ %130, %128 ], [ %110, %126 ], [ %140, %137 ], [ %107, %135 ], [ %154, %141 ]
  %157 = ptrtoint ptr %.0.i.i to i64
  %158 = xor i64 %157, 1
  %159 = inttoptr i64 %158 to ptr
  ret ptr %159
}